target datalayout = "e-m:e-p270:32:32-p271:32:32-p272:64:64-i64:64-i128:128-f80:128-n8:16:32:64-S128"
target triple = "x86_64-pc-linux-gnu"

%struct.dt_database_t = type { i32, ptr, ptr, ptr, ptr, ptr, ptr, ptr, i32 }

; Function Attrs: nounwind uwtable
define void @dt_database_destroy(ptr noundef %0) #0 {
  %2 = alloca ptr, align 8
  store ptr %0, ptr %2, align 8, !tbaa !6
  %3 = load ptr, ptr %2, align 8, !tbaa !6
  %4 = getelementptr inbounds nuw %struct.dt_database_t, ptr %3, i32 0, i32 5
  %5 = load ptr, ptr %4, align 8, !tbaa !11
  %6 = call i32 @sqlite3_close(ptr noundef %5)
  %7 = load ptr, ptr %2, align 8, !tbaa !6
  %8 = getelementptr inbounds nuw %struct.dt_database_t, ptr %7, i32 0, i32 2
  %9 = load ptr, ptr %8, align 8, !tbaa !68
  %10 = icmp ne ptr %9, null
  br i1 %10, label %11, label %19

11:                                               ; preds = %1
  %12 = load ptr, ptr %2, align 8, !tbaa !6
  %13 = getelementptr inbounds nuw %struct.dt_database_t, ptr %12, i32 0, i32 2
  %14 = load ptr, ptr %13, align 8, !tbaa !68
  %15 = call i32 @g_unlink(ptr noundef %14)
  %16 = load ptr, ptr %2, align 8, !tbaa !6
  %17 = getelementptr inbounds nuw %struct.dt_database_t, ptr %16, i32 0, i32 2
  %18 = load ptr, ptr %17, align 8, !tbaa !68
  call void @g_free(ptr noundef %18)
  br label %19

19:                                               ; preds = %11, %1
  %20 = load ptr, ptr %2, align 8, !tbaa !6
  %21 = getelementptr inbounds nuw %struct.dt_database_t, ptr %20, i32 0, i32 4
  %22 = load ptr, ptr %21, align 8, !tbaa !69
  %23 = icmp ne ptr %22, null
  br i1 %23, label %24, label %32

24:                                               ; preds = %19
  %25 = load ptr, ptr %2, align 8, !tbaa !6
  %26 = getelementptr inbounds nuw %struct.dt_database_t, ptr %25, i32 0, i32 4
  %27 = load ptr, ptr %26, align 8, !tbaa !69
  %28 = call i32 @g_unlink(ptr noundef %27)
  %29 = load ptr, ptr %2, align 8, !tbaa !6
  %30 = getelementptr inbounds nuw %struct.dt_database_t, ptr %29, i32 0, i32 4
  %31 = load ptr, ptr %30, align 8, !tbaa !69
  call void @g_free(ptr noundef %31)
  br label %32

32:                                               ; preds = %24, %19
  %33 = load ptr, ptr %2, align 8, !tbaa !6
  %34 = getelementptr inbounds nuw %struct.dt_database_t, ptr %33, i32 0, i32 1
  %35 = load ptr, ptr %34, align 8, !tbaa !66
  call void @g_free(ptr noundef %35)
  %36 = load ptr, ptr %2, align 8, !tbaa !6
  %37 = getelementptr inbounds nuw %struct.dt_database_t, ptr %36, i32 0, i32 3
  %38 = load ptr, ptr %37, align 8, !tbaa !67
  call void @g_free(ptr noundef %38)
  %39 = load ptr, ptr %2, align 8, !tbaa !6
  call void @g_free(ptr noundef %39)
  %40 = call i32 @sqlite3_shutdown()
  ret void
}