; Function Attrs: nounwind uwtable
define void @dt_database_destroy(ptr noundef %0) local_unnamed_addr #0 {
  %2 = getelementptr inbounds nuw i8, ptr %0, i64 40
  %3 = load ptr, ptr %2, align 8, !tbaa !6
  %4 = tail call i32 @sqlite3_close(ptr noundef %3) #18
  %5 = getelementptr inbounds nuw i8, ptr %0, i64 16
  %6 = load ptr, ptr %5, align 8, !tbaa !62
  %.not = icmp eq ptr %6, null
  br i1 %.not, label %10, label %7

7:                                                ; preds = %1
  %8 = tail call i32 @g_unlink(ptr noundef nonnull %6) #18
  %9 = load ptr, ptr %5, align 8, !tbaa !62
  tail call void @g_free(ptr noundef %9) #18
  br label %10

10:                                               ; preds = %7, %1
  %11 = getelementptr inbounds nuw i8, ptr %0, i64 32
  %12 = load ptr, ptr %11, align 8, !tbaa !63
  %.not11 = icmp eq ptr %12, null
  br i1 %.not11, label %16, label %13

13:                                               ; preds = %10
  %14 = tail call i32 @g_unlink(ptr noundef nonnull %12) #18
  %15 = load ptr, ptr %11, align 8, !tbaa !63
  tail call void @g_free(ptr noundef %15) #18
  br label %16

16:                                               ; preds = %13, %10
  %17 = getelementptr inbounds nuw i8, ptr %0, i64 8
  %18 = load ptr, ptr %17, align 8, !tbaa !23
  tail call void @g_free(ptr noundef %18) #18
  %19 = getelementptr inbounds nuw i8, ptr %0, i64 24
  %20 = load ptr, ptr %19, align 8, !tbaa !24
  tail call void @g_free(ptr noundef %20) #18
  tail call void @g_free(ptr noundef nonnull %0) #18
  %21 = tail call i32 @sqlite3_shutdown() #18
  ret void
}